target datalayout = "e-m:e-p270:32:32-p271:32:32-p272:64:64-i64:64-i128:128-f80:128-n8:16:32:64-S128"
target triple = "x86_64-pc-linux-gnu"

%"class.std::__cxx11::basic_string" = type { %"struct.std::__cxx11::basic_string<char>::_Alloc_hider", i64, %union.anon }
%"struct.std::__cxx11::basic_string<char>::_Alloc_hider" = type { ptr }
%union.anon = type { i64, [8 x i8] }
%"class.std::allocator" = type { i8 }
%"class.cv::Mat" = type { i32, i32, i32, i32, ptr, ptr, ptr, ptr, ptr, ptr, %"struct.cv::MatSize", %"struct.cv::MatStep" }
%"struct.cv::MatSize" = type { ptr }
%"struct.cv::MatStep" = type { ptr, [2 x i64] }

@.str.1 = private unnamed_addr constant [119 x i8] c"generated/home/dtcxzyw/WorkSpace/Projects/compilers/llvm-opt-benchmark/bench/opencv/opencv/modules/core/src/matrix.cpp\00", align 1
@.str.29 = private unnamed_addr constant [17 x i8] c"(int)nelems >= 0\00", align 1
@__func__._ZN2cv3Mat6resizeEm = private unnamed_addr constant [7 x i8] c"resize\00", align 1

; Function Attrs: mustprogress nounwind uwtable
define linkonce_odr hidden void @_ZNSt15__new_allocatorIcE10deallocateEPcm(ptr noundef nonnull align 1 dereferenceable(1) %0, ptr noundef %1, i64 noundef %2) #0 comdat align 2 {
  %4 = alloca ptr, align 8
  %5 = alloca ptr, align 8
  %6 = alloca i64, align 8
  store ptr %0, ptr %4, align 8, !tbaa !169
  store ptr %1, ptr %5, align 8, !tbaa !30
  store i64 %2, ptr %6, align 8, !tbaa !31
  %7 = load ptr, ptr %5, align 8, !tbaa !30
  call void @_ZdlPv(ptr noundef %7) #20
  ret void
}

; Function Attrs: mustprogress nounwind uwtable
define linkonce_odr hidden noundef ptr @_ZNSt19__ptr_traits_ptr_toIPKcS0_Lb0EE10pointer_toERS0_(ptr noundef nonnull align 1 dereferenceable(1) %0) #0 comdat align 2 {
  %2 = alloca ptr, align 8
  store ptr %0, ptr %2, align 8, !tbaa !30
  %3 = load ptr, ptr %2, align 8, !tbaa !30
  ret ptr %3
}

; Function Attrs: mustprogress uwtable
define linkonce_odr hidden void @_ZNSt16allocator_traitsISaIcEE10deallocateERS0_Pcm(ptr noundef nonnull align 1 dereferenceable(1) %0, ptr noundef %1, i64 noundef %2) #1 comdat align 2 {
  %4 = alloca ptr, align 8
  %5 = alloca ptr, align 8
  %6 = alloca i64, align 8
  store ptr %0, ptr %4, align 8, !tbaa !43
  store ptr %1, ptr %5, align 8, !tbaa !30
  store i64 %2, ptr %6, align 8, !tbaa !31
  %7 = load ptr, ptr %4, align 8, !tbaa !43
  %8 = load ptr, ptr %5, align 8, !tbaa !30
  %9 = load i64, ptr %6, align 8, !tbaa !31
  call void @_ZNSt15__new_allocatorIcE10deallocateEPcm(ptr noundef nonnull align 1 dereferenceable(1) %7, ptr noundef %8, i64 noundef %9)
  ret void
}

; Function Attrs: mustprogress nounwind uwtable
define available_externally noundef nonnull align 1 dereferenceable(1) ptr @_ZNSt7__cxx1112basic_stringIcSt11char_traitsIcESaIcEE16_M_get_allocatorEv(ptr noundef nonnull align 8 dereferenceable(32) %0) #0 align 2 {
  %2 = alloca ptr, align 8
  store ptr %0, ptr %2, align 8, !tbaa !45
  %3 = load ptr, ptr %2, align 8
  %4 = getelementptr inbounds nuw %"class.std::__cxx11::basic_string", ptr %3, i32 0, i32 0
  ret ptr %4
}

; Function Attrs: mustprogress nounwind uwtable
define available_externally noundef ptr @_ZNKSt7__cxx1112basic_stringIcSt11char_traitsIcESaIcEE13_M_local_dataEv(ptr noundef nonnull align 8 dereferenceable(32) %0) #0 align 2 {
  %2 = alloca ptr, align 8
  store ptr %0, ptr %2, align 8, !tbaa !45
  %3 = load ptr, ptr %2, align 8
  %4 = getelementptr inbounds nuw %"class.std::__cxx11::basic_string", ptr %3, i32 0, i32 2
  %5 = getelementptr inbounds [16 x i8], ptr %4, i64 0, i64 0
  %6 = call noundef ptr @_ZNSt19__ptr_traits_ptr_toIPKcS0_Lb0EE10pointer_toERS0_(ptr noundef nonnull align 1 dereferenceable(1) %5) #7
  ret ptr %6
}

; Function Attrs: mustprogress nounwind uwtable
define available_externally noundef ptr @_ZNKSt7__cxx1112basic_stringIcSt11char_traitsIcESaIcEE7_M_dataEv(ptr noundef nonnull align 8 dereferenceable(32) %0) #0 align 2 {
  %2 = alloca ptr, align 8
  store ptr %0, ptr %2, align 8, !tbaa !45
  %3 = load ptr, ptr %2, align 8
  %4 = getelementptr inbounds nuw %"class.std::__cxx11::basic_string", ptr %3, i32 0, i32 0
  %5 = getelementptr inbounds nuw %"struct.std::__cxx11::basic_string<char>::_Alloc_hider", ptr %4, i32 0, i32 0
  %6 = load ptr, ptr %5, align 8, !tbaa !175
  ret ptr %6
}

; Function Attrs: mustprogress nounwind uwtable
define available_externally void @_ZNSt7__cxx1112basic_stringIcSt11char_traitsIcESaIcEE10_M_destroyEm(ptr noundef nonnull align 8 dereferenceable(32) %0, i64 noundef %1) #0 align 2 personality ptr @__gxx_personality_v0 {
  %3 = alloca ptr, align 8
  %4 = alloca i64, align 8
  %5 = alloca ptr, align 8
  %6 = alloca i32, align 4
  store ptr %0, ptr %3, align 8, !tbaa !45
  store i64 %1, ptr %4, align 8, !tbaa !31
  %7 = load ptr, ptr %3, align 8
  %8 = invoke noundef nonnull align 1 dereferenceable(1) ptr @_ZNSt7__cxx1112basic_stringIcSt11char_traitsIcESaIcEE16_M_get_allocatorEv(ptr noundef nonnull align 8 dereferenceable(32) %7)
          to label %9 unwind label %14

9:                                                ; preds = %2
  %10 = call noundef ptr @_ZNKSt7__cxx1112basic_stringIcSt11char_traitsIcESaIcEE7_M_dataEv(ptr noundef nonnull align 8 dereferenceable(32) %7)
  %11 = load i64, ptr %4, align 8, !tbaa !31
  %12 = add i64 %11, 1
  invoke void @_ZNSt16allocator_traitsISaIcEE10deallocateERS0_Pcm(ptr noundef nonnull align 1 dereferenceable(1) %8, ptr noundef %10, i64 noundef %12)
          to label %13 unwind label %14

13:                                               ; preds = %9
  ret void

14:                                               ; preds = %9, %2
  %15 = landingpad { ptr, i32 }
          filter [0 x ptr] zeroinitializer
  %16 = extractvalue { ptr, i32 } %15, 0
  store ptr %16, ptr %5, align 8
  %17 = extractvalue { ptr, i32 } %15, 1
  store i32 %17, ptr %6, align 4
  br label %18

18:                                               ; preds = %14
  %19 = load ptr, ptr %5, align 8
  call void @__cxa_call_unexpected(ptr %19) #17
  unreachable
}

; Function Attrs: mustprogress uwtable
define available_externally noundef zeroext i1 @_ZNKSt7__cxx1112basic_stringIcSt11char_traitsIcESaIcEE11_M_is_localEv(ptr noundef nonnull align 8 dereferenceable(32) %0) #1 align 2 {
  %2 = alloca i1, align 1
  %3 = alloca ptr, align 8
  store ptr %0, ptr %3, align 8, !tbaa !45
  %4 = load ptr, ptr %3, align 8
  %5 = call noundef ptr @_ZNKSt7__cxx1112basic_stringIcSt11char_traitsIcESaIcEE7_M_dataEv(ptr noundef nonnull align 8 dereferenceable(32) %4)
  %6 = call noundef ptr @_ZNKSt7__cxx1112basic_stringIcSt11char_traitsIcESaIcEE13_M_local_dataEv(ptr noundef nonnull align 8 dereferenceable(32) %4)
  %7 = icmp eq ptr %5, %6
  br i1 %7, label %8, label %14

8:                                                ; preds = %1
  %9 = getelementptr inbounds nuw %"class.std::__cxx11::basic_string", ptr %4, i32 0, i32 1
  %10 = load i64, ptr %9, align 8, !tbaa !172
  %11 = icmp ugt i64 %10, 15
  br i1 %11, label %12, label %13

12:                                               ; preds = %8
  unreachable

13:                                               ; preds = %8
  store i1 true, ptr %2, align 1
  br label %15

14:                                               ; preds = %1
  store i1 false, ptr %2, align 1
  br label %15

15:                                               ; preds = %14, %13
  %16 = load i1, ptr %2, align 1
  ret i1 %16
}

; Function Attrs: noinline noreturn nounwind uwtable
define linkonce_odr hidden void @__clang_call_terminate(ptr noundef %0) #12 comdat {
  %2 = call ptr @__cxa_begin_catch(ptr %0) #7
  call void @_ZSt9terminatev() #18
  unreachable
}

; Function Attrs: mustprogress uwtable
define available_externally void @_ZNSt7__cxx1112basic_stringIcSt11char_traitsIcESaIcEE10_M_disposeEv(ptr noundef nonnull align 8 dereferenceable(32) %0) #1 align 2 {
  %2 = alloca ptr, align 8
  store ptr %0, ptr %2, align 8, !tbaa !45
  %3 = load ptr, ptr %2, align 8
  %4 = call noundef zeroext i1 @_ZNKSt7__cxx1112basic_stringIcSt11char_traitsIcESaIcEE11_M_is_localEv(ptr noundef nonnull align 8 dereferenceable(32) %3)
  br i1 %4, label %8, label %5

5:                                                ; preds = %1
  %6 = getelementptr inbounds nuw %"class.std::__cxx11::basic_string", ptr %3, i32 0, i32 2
  %7 = load i64, ptr %6, align 8, !tbaa !171
  call void @_ZNSt7__cxx1112basic_stringIcSt11char_traitsIcESaIcEE10_M_destroyEm(ptr noundef nonnull align 8 dereferenceable(32) %3, i64 noundef %7) #7
  br label %8

8:                                                ; preds = %5, %1
  ret void
}

; Function Attrs: mustprogress nounwind uwtable
define linkonce_odr hidden void @_ZNSt15__new_allocatorIcEC2Ev(ptr noundef nonnull align 1 dereferenceable(1) %0) unnamed_addr #0 comdat align 2 {
  %2 = alloca ptr, align 8
  store ptr %0, ptr %2, align 8, !tbaa !169
  ret void
}

; Function Attrs: inlinehint mustprogress nounwind uwtable
define linkonce_odr hidden noundef zeroext i1 @_ZNK2cv3Mat11isSubmatrixEv(ptr noundef nonnull align 8 dereferenceable(96) %0) #6 comdat align 2 {
  %2 = alloca ptr, align 8
  store ptr %0, ptr %2, align 8, !tbaa !34
  %3 = load ptr, ptr %2, align 8
  %4 = getelementptr inbounds nuw %"class.cv::Mat", ptr %3, i32 0, i32 0
  %5 = load i32, ptr %4, align 8, !tbaa !79
  %6 = and i32 %5, 32768
  %7 = icmp ne i32 %6, 0
  ret i1 %7
}

; Function Attrs: mustprogress nounwind uwtable
define linkonce_odr hidden void @_ZNSt15__new_allocatorIcED2Ev(ptr noundef nonnull align 1 dereferenceable(1) %0) unnamed_addr #0 comdat align 2 {
  %2 = alloca ptr, align 8
  store ptr %0, ptr %2, align 8, !tbaa !169
  ret void
}

; Function Attrs: mustprogress nounwind uwtable
define available_externally void @_ZNSt7__cxx1112basic_stringIcSt11char_traitsIcESaIcEED2Ev(ptr noundef nonnull align 8 dereferenceable(32) %0) unnamed_addr #0 align 2 personality ptr @__gxx_personality_v0 {
  %2 = alloca ptr, align 8
  store ptr %0, ptr %2, align 8, !tbaa !45
  %3 = load ptr, ptr %2, align 8
  invoke void @_ZNSt7__cxx1112basic_stringIcSt11char_traitsIcESaIcEE10_M_disposeEv(ptr noundef nonnull align 8 dereferenceable(32) %3)
          to label %4 unwind label %6

4:                                                ; preds = %1
  %5 = getelementptr inbounds nuw %"class.std::__cxx11::basic_string", ptr %3, i32 0, i32 0
  call void @_ZNSt15__new_allocatorIcED2Ev(ptr noundef nonnull align 8 dereferenceable(8) %5) #7
  ret void

6:                                                ; preds = %1
  %7 = landingpad { ptr, i32 }
          catch ptr null
  %8 = extractvalue { ptr, i32 } %7, 0
  call void @__clang_call_terminate(ptr %8) #18
  unreachable
}

; Function Attrs: mustprogress nounwind uwtable
define available_externally void @_ZNSaIcEC2Ev(ptr noundef nonnull align 1 dereferenceable(1) %0) unnamed_addr #0 align 2 {
  %2 = alloca ptr, align 8
  store ptr %0, ptr %2, align 8, !tbaa !43
  %3 = load ptr, ptr %2, align 8
  call void @_ZNSt15__new_allocatorIcEC2Ev(ptr noundef nonnull align 1 dereferenceable(1) %3) #7
  ret void
}

; Function Attrs: mustprogress uwtable
define void @_ZN2cv3Mat6resizeEm(ptr noundef nonnull align 8 dereferenceable(96) %0, i64 noundef %1) #1 align 2 personality ptr @__gxx_personality_v0 {
  %3 = alloca ptr, align 8
  %4 = alloca i64, align 8
  %5 = alloca i32, align 4
  %6 = alloca i32, align 4
  %7 = alloca %"class.std::__cxx11::basic_string", align 8
  %8 = alloca %"class.std::allocator", align 1
  %9 = alloca ptr, align 8
  %10 = alloca i32, align 4
  store ptr %0, ptr %3, align 8, !tbaa !34
  store i64 %1, ptr %4, align 8, !tbaa !31
  %11 = load ptr, ptr %3, align 8
  call void @llvm.lifetime.start.p0(i64 4, ptr %5) #7
  %12 = getelementptr inbounds nuw %"class.cv::Mat", ptr %11, i32 0, i32 10
  %13 = getelementptr inbounds nuw %"struct.cv::MatSize", ptr %12, i32 0, i32 0
  %14 = load ptr, ptr %13, align 8, !tbaa !76
  %15 = getelementptr inbounds i32, ptr %14, i64 0
  %16 = load i32, ptr %15, align 4, !tbaa !26
  store i32 %16, ptr %5, align 4, !tbaa !26
  %17 = load i32, ptr %5, align 4, !tbaa !26
  %18 = load i64, ptr %4, align 8, !tbaa !31
  %19 = trunc i64 %18 to i32
  %20 = icmp eq i32 %17, %19
  br i1 %20, label %21, label %22

21:                                               ; preds = %2
  store i32 1, ptr %6, align 4
  br label %84

22:                                               ; preds = %2
  br label %23

23:                                               ; preds = %22
  %24 = load i64, ptr %4, align 8, !tbaa !31
  %25 = trunc i64 %24 to i32
  %26 = icmp sge i32 %25, 0
  br i1 %26, label %27, label %28

27:                                               ; preds = %23
  br label %40

28:                                               ; preds = %23
  call void @llvm.lifetime.start.p0(i64 32, ptr %7) #7
  call void @llvm.lifetime.start.p0(i64 1, ptr %8) #7
  call void @_ZNSaIcEC2Ev(ptr noundef nonnull align 1 dereferenceable(1) %8) #7
  invoke void @_ZNSt7__cxx1112basic_stringIcSt11char_traitsIcESaIcEEC2EPKcRKS3_(ptr noundef nonnull align 8 dereferenceable(32) %7, ptr noundef @.str.29, ptr noundef nonnull align 1 dereferenceable(1) %8)
          to label %29 unwind label %31

29:                                               ; preds = %28
  invoke void @_ZN2cv5errorEiRKNSt7__cxx1112basic_stringIcSt11char_traitsIcESaIcEEEPKcS9_i(i32 noundef -215, ptr noundef nonnull align 8 dereferenceable(32) %7, ptr noundef @__func__._ZN2cv3Mat6resizeEm, ptr noundef @.str.1, i32 noundef 1027) #17
          to label %30 unwind label %35

30:                                               ; preds = %29
  unreachable

31:                                               ; preds = %28
  %32 = landingpad { ptr, i32 }
          cleanup
  %33 = extractvalue { ptr, i32 } %32, 0
  store ptr %33, ptr %9, align 8
  %34 = extractvalue { ptr, i32 } %32, 1
  store i32 %34, ptr %10, align 4
  br label %39

35:                                               ; preds = %29
  %36 = landingpad { ptr, i32 }
          cleanup
  %37 = extractvalue { ptr, i32 } %36, 0
  store ptr %37, ptr %9, align 8
  %38 = extractvalue { ptr, i32 } %36, 1
  store i32 %38, ptr %10, align 4
  call void @_ZNSt7__cxx1112basic_stringIcSt11char_traitsIcESaIcEED2Ev(ptr noundef nonnull align 8 dereferenceable(32) %7) #7
  br label %39

39:                                               ; preds = %35, %31
  call void @_ZNSt15__new_allocatorIcED2Ev(ptr noundef nonnull align 1 dereferenceable(1) %8) #7
  call void @llvm.lifetime.end.p0(i64 1, ptr %8) #7
  call void @llvm.lifetime.end.p0(i64 32, ptr %7) #7
  call void @llvm.lifetime.end.p0(i64 4, ptr %5) #7
  br label %87

40:                                               ; preds = %27
  br label %41

41:                                               ; preds = %40
  br label %42

42:                                               ; preds = %41
  %43 = call noundef zeroext i1 @_ZNK2cv3Mat11isSubmatrixEv(ptr noundef nonnull align 8 dereferenceable(96) %11)
  br i1 %43, label %58, label %44

44:                                               ; preds = %42
  %45 = getelementptr inbounds nuw %"class.cv::Mat", ptr %11, i32 0, i32 4
  %46 = load ptr, ptr %45, align 8, !tbaa !89
  %47 = getelementptr inbounds nuw %"class.cv::Mat", ptr %11, i32 0, i32 11
  %48 = getelementptr inbounds nuw %"struct.cv::MatStep", ptr %47, i32 0, i32 0
  %49 = load ptr, ptr %48, align 8, !tbaa !75
  %50 = getelementptr inbounds i64, ptr %49, i64 0
  %51 = load i64, ptr %50, align 8, !tbaa !31
  %52 = load i64, ptr %4, align 8, !tbaa !31
  %53 = mul i64 %51, %52
  %54 = getelementptr inbounds nuw i8, ptr %46, i64 %53
  %55 = getelementptr inbounds nuw %"class.cv::Mat", ptr %11, i32 0, i32 7
  %56 = load ptr, ptr %55, align 8, !tbaa !91
  %57 = icmp ugt ptr %54, %56
  br i1 %57, label %58, label %60

58:                                               ; preds = %44, %42
  %59 = load i64, ptr %4, align 8, !tbaa !31
  call void @_ZN2cv3Mat7reserveEm(ptr noundef nonnull align 8 dereferenceable(96) %11, i64 noundef %59)
  br label %60

60:                                               ; preds = %58, %44
  %61 = load i64, ptr %4, align 8, !tbaa !31
  %62 = trunc i64 %61 to i32
  %63 = getelementptr inbounds nuw %"class.cv::Mat", ptr %11, i32 0, i32 10
  %64 = getelementptr inbounds nuw %"struct.cv::MatSize", ptr %63, i32 0, i32 0
  %65 = load ptr, ptr %64, align 8, !tbaa !76
  %66 = getelementptr inbounds i32, ptr %65, i64 0
  store i32 %62, ptr %66, align 4, !tbaa !26
  %67 = getelementptr inbounds nuw %"class.cv::Mat", ptr %11, i32 0, i32 10
  %68 = getelementptr inbounds nuw %"struct.cv::MatSize", ptr %67, i32 0, i32 0
  %69 = load ptr, ptr %68, align 8, !tbaa !76
  %70 = getelementptr inbounds i32, ptr %69, i64 0
  %71 = load i32, ptr %70, align 4, !tbaa !26
  %72 = load i32, ptr %5, align 4, !tbaa !26
  %73 = sub nsw i32 %71, %72
  %74 = sext i32 %73 to i64
  %75 = getelementptr inbounds nuw %"class.cv::Mat", ptr %11, i32 0, i32 11
  %76 = getelementptr inbounds nuw %"struct.cv::MatStep", ptr %75, i32 0, i32 0
  %77 = load ptr, ptr %76, align 8, !tbaa !75
  %78 = getelementptr inbounds i64, ptr %77, i64 0
  %79 = load i64, ptr %78, align 8, !tbaa !31
  %80 = mul i64 %74, %79
  %81 = getelementptr inbounds nuw %"class.cv::Mat", ptr %11, i32 0, i32 6
  %82 = load ptr, ptr %81, align 8, !tbaa !92
  %83 = getelementptr inbounds nuw i8, ptr %82, i64 %80
  store ptr %83, ptr %81, align 8, !tbaa !92
  store i32 0, ptr %6, align 4
  br label %84

84:                                               ; preds = %60, %21
  call void @llvm.lifetime.end.p0(i64 4, ptr %5) #7
  %85 = load i32, ptr %6, align 4
  switch i32 %85, label %92 [
    i32 0, label %86
    i32 1, label %86
  ]

86:                                               ; preds = %84, %84
  ret void

87:                                               ; preds = %39
  %88 = load ptr, ptr %9, align 8
  %89 = load i32, ptr %10, align 4
  %90 = insertvalue { ptr, i32 } poison, ptr %88, 0
  %91 = insertvalue { ptr, i32 } %90, i32 %89, 1
  resume { ptr, i32 } %91

92:                                               ; preds = %84
  unreachable
}