; Function Attrs: mustprogress uwtable
define void @_ZN2cv3Mat6resizeEm(ptr noundef nonnull align 8 dereferenceable(96) %0, i64 noundef %1) local_unnamed_addr #1 align 2 personality ptr @__gxx_personality_v0 {
  %3 = alloca %"class.std::__cxx11::basic_string", align 8
  %4 = alloca %"class.std::allocator", align 1
  %5 = getelementptr inbounds nuw i8, ptr %0, i64 64
  %6 = load ptr, ptr %5, align 8, !tbaa !58
  %7 = load i32, ptr %6, align 4, !tbaa !23
  %8 = trunc i64 %1 to i32
  %9 = icmp eq i32 %7, %8
  br i1 %9, label %46, label %10

10:                                               ; preds = %2
  %11 = icmp sgt i32 %8, -1
  br i1 %11, label %22, label %12

12:                                               ; preds = %10
  call void @llvm.lifetime.start.p0(i64 32, ptr nonnull %3) #24
  call void @llvm.lifetime.start.p0(i64 1, ptr nonnull %4) #24
  call void @_ZNSt7__cxx1112basic_stringIcSt11char_traitsIcESaIcEEC2EPKcRKS3_(ptr noundef nonnull align 8 dereferenceable(32) %3, ptr noundef nonnull @.str.29, ptr noundef nonnull align 1 dereferenceable(1) %4)
  invoke void @_ZN2cv5errorEiRKNSt7__cxx1112basic_stringIcSt11char_traitsIcESaIcEEEPKcS9_i(i32 noundef -215, ptr noundef nonnull align 8 dereferenceable(32) %3, ptr noundef nonnull @__func__._ZN2cv3Mat6resizeEm, ptr noundef nonnull @.str.1, i32 noundef 1027) #25
          to label %13 unwind label %14

13:                                               ; preds = %12
  unreachable

14:                                               ; preds = %12
  %15 = landingpad { ptr, i32 }
          cleanup
  %16 = load ptr, ptr %3, align 8, !tbaa !26
  %17 = getelementptr inbounds nuw i8, ptr %3, i64 16
  %18 = icmp eq ptr %16, %17
  br i1 %18, label %_ZNKSt7__cxx1112basic_stringIcSt11char_traitsIcESaIcEE11_M_is_localEv.exit.thread.i.i, label %_ZNKSt7__cxx1112basic_stringIcSt11char_traitsIcESaIcEE11_M_is_localEv.exit.i.i

_ZNKSt7__cxx1112basic_stringIcSt11char_traitsIcESaIcEE11_M_is_localEv.exit.thread.i.i: ; preds = %14
  %19 = getelementptr inbounds nuw i8, ptr %3, i64 8
  %20 = load i64, ptr %19, align 8, !tbaa !29
  %21 = icmp ult i64 %20, 16
  call void @llvm.assume(i1 %21)
  br label %_ZNSt7__cxx1112basic_stringIcSt11char_traitsIcESaIcEED2Ev.exit

_ZNKSt7__cxx1112basic_stringIcSt11char_traitsIcESaIcEE11_M_is_localEv.exit.i.i: ; preds = %14
  call void @_ZdlPv(ptr noundef %16) #26
  br label %_ZNSt7__cxx1112basic_stringIcSt11char_traitsIcESaIcEED2Ev.exit

_ZNSt7__cxx1112basic_stringIcSt11char_traitsIcESaIcEED2Ev.exit: ; preds = %_ZNKSt7__cxx1112basic_stringIcSt11char_traitsIcESaIcEE11_M_is_localEv.exit.i.i, %_ZNKSt7__cxx1112basic_stringIcSt11char_traitsIcESaIcEE11_M_is_localEv.exit.thread.i.i
  call void @llvm.lifetime.end.p0(i64 1, ptr nonnull %4) #24
  call void @llvm.lifetime.end.p0(i64 32, ptr nonnull %3) #24
  resume { ptr, i32 } %15

22:                                               ; preds = %10
  %23 = load i32, ptr %0, align 8, !tbaa !61
  %24 = and i32 %23, 32768
  %.not = icmp eq i32 %24, 0
  br i1 %.not, label %25, label %36

25:                                               ; preds = %22
  %26 = getelementptr inbounds nuw i8, ptr %0, i64 16
  %27 = load ptr, ptr %26, align 8, !tbaa !67
  %28 = getelementptr inbounds nuw i8, ptr %0, i64 72
  %29 = load ptr, ptr %28, align 8, !tbaa !57
  %30 = load i64, ptr %29, align 8, !tbaa !22
  %31 = mul i64 %30, %1
  %32 = getelementptr inbounds nuw i8, ptr %27, i64 %31
  %33 = getelementptr inbounds nuw i8, ptr %0, i64 40
  %34 = load ptr, ptr %33, align 8, !tbaa !69
  %35 = icmp ugt ptr %32, %34
  br i1 %35, label %36, label %37

36:                                               ; preds = %25, %22
  tail call void @_ZN2cv3Mat7reserveEm(ptr noundef nonnull align 8 dereferenceable(96) %0, i64 noundef %1)
  %.pre = load ptr, ptr %5, align 8, !tbaa !58
  %.phi.trans.insert = getelementptr inbounds nuw i8, ptr %0, i64 72
  %.pre13 = load ptr, ptr %.phi.trans.insert, align 8, !tbaa !57
  %.pre14 = load i64, ptr %.pre13, align 8, !tbaa !22
  br label %37

37:                                               ; preds = %36, %25
  %38 = phi i64 [ %.pre14, %36 ], [ %30, %25 ]
  %39 = phi ptr [ %.pre, %36 ], [ %6, %25 ]
  store i32 %8, ptr %39, align 4, !tbaa !23
  %40 = sub nsw i32 %8, %7
  %41 = sext i32 %40 to i64
  %42 = mul i64 %38, %41
  %43 = getelementptr inbounds nuw i8, ptr %0, i64 32
  %44 = load ptr, ptr %43, align 8, !tbaa !70
  %45 = getelementptr inbounds nuw i8, ptr %44, i64 %42
  store ptr %45, ptr %43, align 8, !tbaa !70
  br label %46

46:                                               ; preds = %2, %37
  ret void
}